; Function Attrs: mustprogress nounwind uwtable
define hidden noundef i64 @_ZN17CgroupV2Subsystem12pids_currentEv(ptr noundef nonnull align 8 dereferenceable(64) %0) unnamed_addr #0 align 2 {
  %2 = alloca i64, align 8
  %3 = getelementptr inbounds i8, ptr %0, i64 8
  %4 = call noundef zeroext i1 @_ZN16CgroupController11read_numberEPKcPm(ptr noundef nonnull align 8 dereferenceable(8) %3, ptr noundef nonnull @.str.47, ptr noundef nonnull %2) #8
  %5 = load volatile ptr, ptr getelementptr inbounds (i8, ptr @_ZN16LogTagSetMappingILN6LogTag4typeE105ELS1_25ELS1_0ELS1_0ELS1_0ELS1_0EE7_tagsetE, i64 48), align 8
  %.not2 = icmp eq ptr %5, null
  br i1 %4, label %8, label %6

6:                                                ; preds = %1
  br i1 %.not2, label %13, label %7

7:                                                ; preds = %6
  call void (ptr, ...) @_ZN7LogImplILN6LogTag4typeE105ELS1_25ELS1_0ELS1_0ELS1_0ELS1_0EE5writeILN8LogLevel4typeE1EEEvPKcz(ptr noundef nonnull @.str.48, i32 noundef -2)
  br label %13

8:                                                ; preds = %1
  br i1 %.not2, label %11, label %9

9:                                                ; preds = %8
  %10 = load i64, ptr %2, align 8
  call void (ptr, ...) @_ZN7LogImplILN6LogTag4typeE105ELS1_25ELS1_0ELS1_0ELS1_0ELS1_0EE5writeILN8LogLevel4typeE1EEEvPKcz(ptr noundef nonnull @.str.49, i64 noundef %10)
  br label %11

11:                                               ; preds = %8, %9
  %12 = load i64, ptr %2, align 8
  br label %13

13:                                               ; preds = %7, %6, %11
  %.0 = phi i64 [ %12, %11 ], [ -2, %6 ], [ -2, %7 ]
  ret i64 %.0
}